target datalayout = "e-m:e-p270:32:32-p271:32:32-p272:64:64-i64:64-i128:128-f80:128-n8:16:32:64-S128"
target triple = "x86_64-pc-linux-gnu"

%struct.AvifInfoInternalForward = type { ptr, i64 }

; Function Attrs: nounwind uwtable
define internal void @AvifInfoInternalForwardSkip(ptr noundef %0, i64 noundef %1) #0 {
  %3 = alloca ptr, align 8
  %4 = alloca i64, align 8
  %5 = alloca ptr, align 8
  store ptr %0, ptr %3, align 8
  store i64 %1, ptr %4, align 8
  %6 = load ptr, ptr %3, align 8
  store ptr %6, ptr %5, align 8
  %7 = load i64, ptr %4, align 8
  %8 = load ptr, ptr %5, align 8
  %9 = getelementptr inbounds %struct.AvifInfoInternalForward, ptr %8, i32 0, i32 1
  %10 = load i64, ptr %9, align 8
  %11 = icmp ugt i64 %7, %10
  br i1 %11, label %12, label %16

12:                                               ; preds = %2
  %13 = load ptr, ptr %5, align 8
  %14 = getelementptr inbounds %struct.AvifInfoInternalForward, ptr %13, i32 0, i32 1
  %15 = load i64, ptr %14, align 8
  store i64 %15, ptr %4, align 8
  br label %16

16:                                               ; preds = %12, %2
  %17 = load i64, ptr %4, align 8
  %18 = load ptr, ptr %5, align 8
  %19 = getelementptr inbounds %struct.AvifInfoInternalForward, ptr %18, i32 0, i32 0
  %20 = load ptr, ptr %19, align 8
  %21 = getelementptr inbounds i8, ptr %20, i64 %17
  store ptr %21, ptr %19, align 8
  %22 = load i64, ptr %4, align 8
  %23 = load ptr, ptr %5, align 8
  %24 = getelementptr inbounds %struct.AvifInfoInternalForward, ptr %23, i32 0, i32 1
  %25 = load i64, ptr %24, align 8
  %26 = sub i64 %25, %22
  store i64 %26, ptr %24, align 8
  ret void
}