; Function Attrs: mustprogress nofree norecurse nosync nounwind willreturn memory(argmem: readwrite) uwtable
define internal void @AvifInfoInternalForwardSkip(ptr nocapture noundef %0, i64 noundef %1) #1 {
  %3 = getelementptr inbounds i8, ptr %0, i64 8
  %4 = load i64, ptr %3, align 8
  %spec.select = tail call i64 @llvm.umin.i64(i64 %4, i64 %1)
  %5 = load ptr, ptr %0, align 8
  %6 = getelementptr inbounds i8, ptr %5, i64 %spec.select
  store ptr %6, ptr %0, align 8
  %7 = sub i64 %4, %spec.select
  store i64 %7, ptr %3, align 8
  ret void
}